Certificate:
    Data:
        Version: 3 (0x2)
        Serial Number: 2 (0x2)
        Signature Algorithm: sha256WithRSAEncryption
        Issuer: C=US, ST=California, O=Simple Inc, OU=Root CA, CN=Simple Root CA/emailAddress=ca@simple.org
        Validity
            Not Before: May 19 01:59:08 2025 GMT
            Not After : May 17 01:59:08 2035 GMT
        Subject: C=US, ST=California, O=Simple Inc, OU=Signing CA, CN=Simple Signing CA/emailAddress=signing@simple.org
        Subject Public Key Info:
            Public Key Algorithm: rsaEncryption
                Public-Key: (4096 bit)
                Modulus:
                    00:b5:52:be:cb:99:37:63:b2:2d:92:6f:cf:cb:1d:
                    07:2d:97:72:12:ff:85:3d:33:5e:20:d3:2e:ad:d9:
                    d3:ce:16:a9:fd:16:9f:0d:d8:a5:7a:25:a0:9b:09:
                    86:09:d4:f1:2e:97:a0:1d:08:b3:52:fc:79:99:f7:
                    bd:f9:0e:9f:81:ae:b0:08:5c:5f:fc:f9:37:33:2d:
                    47:aa:93:63:79:f1:3a:5f:24:eb:ca:6a:d7:12:0d:
                    d3:f3:81:0e:8c:db:7b:fa:b4:8a:bf:47:cc:4a:b8:
                    e9:e8:95:6c:98:a0:8d:79:63:c6:03:5d:3b:ac:f4:
                    39:8f:88:1b:a4:11:6b:b6:33:a9:3a:34:7d:e8:06:
                    85:07:91:27:7e:27:f4:55:d1:f1:a9:17:61:b3:41:
                    a6:a6:a5:8b:c2:75:d2:b7:6a:dd:ac:c2:e7:b3:17:
                    fc:0f:36:b8:6e:7a:06:ea:e7:4b:a6:83:35:45:4c:
                    f9:4c:b2:07:d0:9c:5a:7c:15:6a:07:7d:ac:7c:36:
                    72:66:83:3d:4a:4b:98:5f:45:d3:c7:f1:44:43:a1:
                    e0:3d:28:22:ed:d3:e8:a9:96:87:3b:92:a6:8f:31:
                    42:ad:fd:b8:09:bd:0d:6c:d7:6a:3d:e2:63:42:d2:
                    66:2e:7f:53:dc:c8:5e:dc:09:8a:37:2d:35:d6:d5:
                    97:1d:a6:01:d1:c7:9f:82:1c:4e:90:9b:f1:20:60:
                    de:d4:31:79:ee:70:f5:85:4c:73:a0:a2:62:79:59:
                    79:5a:c7:e7:ff:a9:86:16:f1:24:8f:4e:cc:2c:c2:
                    7b:93:31:b7:3f:fd:62:13:53:1a:f5:7c:d4:16:92:
                    89:f7:34:d8:2a:f8:fb:eb:4b:98:27:a1:39:83:b2:
                    62:8d:c3:87:5a:cb:f6:45:86:c6:b1:c2:42:d1:1e:
                    93:2f:26:94:b5:06:30:e3:36:ae:25:9e:e5:eb:51:
                    d6:b3:1f:11:dc:84:df:c8:b7:68:42:00:ce:20:a3:
                    6b:86:74:ad:b3:f0:b9:36:12:b7:dd:c1:7a:13:fa:
                    a4:37:d2:d9:e1:74:fd:fb:7f:ac:97:e1:a2:49:95:
                    32:25:95:9e:af:45:3b:d6:b6:9e:3d:67:98:d4:ee:
                    fe:ef:8a:91:ef:b6:c8:a6:76:aa:c4:51:a4:9c:14:
                    a3:e0:a0:a3:70:4e:66:9d:e8:c5:8e:59:70:f0:bb:
                    20:95:01:f3:e6:57:06:ea:29:d3:89:cd:06:62:e2:
                    6e:ef:0d:a6:cd:09:b5:44:0c:c2:2d:98:5d:4c:5c:
                    2b:1b:7d:de:8f:a4:4a:55:20:b0:e3:88:7e:e0:cb:
                    bf:9a:25:ef:0f:f6:92:15:76:4e:2a:1f:59:b0:f1:
                    ef:1e:8b
                Exponent: 65537 (0x10001)
        X509v3 extensions:
            X509v3 Basic Constraints: critical
                CA:TRUE, pathlen:0
            X509v3 Key Usage: critical
                Certificate Sign, CRL Sign
            X509v3 Subject Key Identifier: 
                9A:D9:6A:36:30:D9:BE:C7:76:B4:E1:F9:AC:76:18:BA:89:69:85:1C
            X509v3 Authority Key Identifier: 
                C8:C3:F5:B4:F2:12:17:A3:78:91:14:45:60:66:0B:8D:1D:C9:E2:53
    Signature Algorithm: sha256WithRSAEncryption
    Signature Value:
        68:18:7d:86:18:33:8a:b6:c1:6d:2b:4a:1b:96:bb:c3:ac:27:
        a7:00:14:c0:f3:f3:66:1a:d7:44:be:ef:ec:ce:4c:e5:0b:c5:
        9e:a4:fa:fe:88:11:da:eb:2b:ad:35:d4:a5:e0:64:13:ae:6e:
        fb:0e:27:bc:5c:a1:62:b4:5b:44:b4:c0:75:bb:ad:c7:ff:ef:
        ea:f0:85:d1:62:fa:97:ae:ba:2c:62:7d:34:50:92:70:cc:d6:
        f0:b0:90:07:9b:aa:c4:b9:ef:6e:e7:78:3f:ca:22:d5:91:30:
        e4:ad:42:dd:b7:29:79:de:a2:47:74:1a:1f:7f:6a:d1:e4:eb:
        32:ac:8e:cf:dd:0e:79:fc:59:2a:aa:0b:24:6a:c4:ac:a4:66:
        7a:a3:43:68:e3:1c:2e:9c:c4:e7:af:b0:d6:24:6f:7f:07:64:
        5b:51:29:39:05:01:37:18:5b:22:f9:9b:0b:be:ea:f4:61:f1:
        75:1d:47:e1:12:6c:ef:0f:46:3e:17:08:f0:4f:1e:7e:0a:ee:
        43:60:72:db:6e:14:6b:4a:63:cf:b4:69:cf:65:81:0f:25:66:
        d8:ec:d9:5c:d7:33:f1:07:89:94:1f:84:02:5c:ee:77:5d:b4:
        85:d1:43:e6:55:92:18:ee:a6:1b:e5:c7:ec:1c:d3:9c:4a:93:
        db:b9:b1:b3:73:0a:e1:6e:90:fc:58:91:30:08:41:dd:d5:c1:
        0e:80:d0:52:ea:a0:42:93:a7:0b:3d:b6:6c:b5:90:57:5d:ee:
        90:b1:1e:69:59:64:8c:f3:ad:8b:7d:eb:27:11:52:99:d0:ab:
        e5:bd:b4:7e:c0:ab:3f:2d:f5:c9:5d:a6:b9:ff:86:86:6c:ec:
        f3:be:5d:ca:e3:5d:37:92:23:d7:7f:76:af:69:e6:d7:75:f5:
        4b:9c:f1:1e:17:9e:30:e1:ef:24:c1:d8:68:ad:25:e5:d1:75:
        77:63:ff:77:6b:f5:95:6a:e5:75:e6:18:bb:7d:4d:b1:e1:16:
        83:5e:fc:63:59:c3:4e:7e:f4:b5:c3:83:f9:44:aa:8e:90:8f:
        86:e2:fa:a6:36:40:7d:01:9d:94:73:bf:64:51:37:40:65:a5:
        ae:e3:fc:68:60:9c:3e:e0:6a:a9:a1:63:a0:a9:87:96:e8:e5:
        65:55:09:46:31:bb:ad:ce:c6:40:e3:20:31:9f:8e:c9:b5:90:
        73:32:cf:79:66:e6:48:8a:42:bc:0f:3a:21:7f:ed:04:3b:c7:
        a9:08:55:34:c1:5f:51:a5:33:04:1f:7c:53:0e:82:3b:84:05:
        10:d1:7b:50:99:8f:3f:95:28:10:4b:2f:4d:87:39:8e:33:10:
        d8:a7:5c:2a:f5:e7:9b:72
-----BEGIN CERTIFICATE-----
MIIF7jCCA9agAwIBAgIBAjANBgkqhkiG9w0BAQsFADCBgDELMAkGA1UEBhMCVVMx
EzARBgNVBAgMCkNhbGlmb3JuaWExEzARBgNVBAoMClNpbXBsZSBJbmMxEDAOBgNV
BAsMB1Jvb3QgQ0ExFzAVBgNVBAMMDlNpbXBsZSBSb290IENBMRwwGgYJKoZIhvcN
AQkBFg1jYUBzaW1wbGUub3JnMB4XDTI1MDUxOTAxNTkwOFoXDTM1MDUxNzAxNTkw
OFowgYsxCzAJBgNVBAYTAlVTMRMwEQYDVQQIDApDYWxpZm9ybmlhMRMwEQYDVQQK
DApTaW1wbGUgSW5jMRMwEQYDVQQLDApTaWduaW5nIENBMRowGAYDVQQDDBFTaW1w
bGUgU2lnbmluZyBDQTEhMB8GCSqGSIb3DQEJARYSc2lnbmluZ0BzaW1wbGUub3Jn
MIICIjANBgkqhkiG9w0BAQEFAAOCAg8AMIICCgKCAgEAtVK+y5k3Y7Itkm/Pyx0H
LZdyEv+FPTNeINMurdnTzhap/RafDdileiWgmwmGCdTxLpegHQizUvx5mfe9+Q6f
ga6wCFxf/Pk3My1HqpNjefE6XyTrymrXEg3T84EOjNt7+rSKv0fMSrjp6JVsmKCN
eWPGA107rPQ5j4gbpBFrtjOpOjR96AaFB5Enfif0VdHxqRdhs0GmpqWLwnXSt2rd
rMLnsxf8Dza4bnoG6udLpoM1RUz5TLIH0JxafBVqB32sfDZyZoM9SkuYX0XTx/FE
Q6HgPSgi7dPoqZaHO5KmjzFCrf24Cb0NbNdqPeJjQtJmLn9T3Mhe3AmKNy011tWX
HaYB0cefghxOkJvxIGDe1DF57nD1hUxzoKJieVl5Wsfn/6mGFvEkj07MLMJ7kzG3
P/1iE1Ma9XzUFpKJ9zTYKvj760uYJ6E5g7JijcOHWsv2RYbGscJC0R6TLyaUtQYw
4zauJZ7l61HWsx8R3ITfyLdoQgDOIKNrhnSts/C5NhK33cF6E/qkN9LZ4XT9+3+s
l+GiSZUyJZWer0U71raePWeY1O7+74qR77bIpnaqxFGknBSj4KCjcE5mnejFjllw
8LsglQHz5lcG6inTic0GYuJu7w2mzQm1RAzCLZhdTFwrG33ej6RKVSCw44h+4Mu/
miXvD/aSFXZOKh9ZsPHvHosCAwEAAaNmMGQwEgYDVR0TAQH/BAgwBgEB/wIBADAO
BgNVHQ8BAf8EBAMCAQYwHQYDVR0OBBYEFJrZajYw2b7HdrTh+ax2GLqJaYUcMB8G
A1UdIwQYMBaAFMjD9bTyEhejeJEURWBmC40dyeJTMA0GCSqGSIb3DQEBCwUAA4IC
AQBoGH2GGDOKtsFtK0oblrvDrCenABTA8/NmGtdEvu/szkzlC8WepPr+iBHa6yut
NdSl4GQTrm77Die8XKFitFtEtMB1u63H/+/q8IXRYvqXrrosYn00UJJwzNbwsJAH
m6rEue9u53g/yiLVkTDkrULdtyl53qJHdBoff2rR5OsyrI7P3Q55/FkqqgskasSs
pGZ6o0No4xwunMTnr7DWJG9/B2RbUSk5BQE3GFsi+ZsLvur0YfF1HUfhEmzvD0Y+
FwjwTx5+Cu5DYHLbbhRrSmPPtGnPZYEPJWbY7Nlc1zPxB4mUH4QCXO53XbSF0UPm
VZIY7qYb5cfsHNOcSpPbubGzcwrhbpD8WJEwCEHd1cEOgNBS6qBCk6cLPbZstZBX
Xe6QsR5pWWSM862LfesnEVKZ0KvlvbR+wKs/LfXJXaa5/4aGbOzzvl3K4103kiPX
f3avaebXdfVLnPEeF54w4e8kwdhorSXl0XV3Y/93a/WVauV15hi7fU2x4RaDXvxj
WcNOfvS1w4P5RKqOkI+G4vqmNkB9AZ2Uc79kUTdAZaWu4/xoYJw+4GqpoWOgqYeW
6OVlVQlGMbutzsZA4yAxn47JtZBzMs95ZuZIikK8Dzohf+0EO8epCFU0wV9RpTME
H3xTDoI7hAUQ0XtQmY8/lSgQSy9NhzmOMxDYp1wq9eebcg==
-----END CERTIFICATE-----
