Certificate:
    Data:
        Version: 3 (0x2)
        Serial Number: 1 (0x1)
        Signature Algorithm: sha256WithRSAEncryption
        Issuer: C=US, ST=California, O=Simple Inc, OU=Signing CA, CN=Simple Signing CA/emailAddress=signing@simple.org
        Validity
            Not Before: May 19 02:34:48 2025 GMT
            Not After : May 18 02:34:48 2030 GMT
        Subject: C=US, ST=California, O=Simple Inc, OU=Web, CN=www.simple.org
        Subject Public Key Info:
            Public Key Algorithm: rsaEncryption
                Public-Key: (2048 bit)
                Modulus:
                    00:c2:59:18:17:a5:dd:77:9b:9f:1f:cf:37:6a:16:
                    33:8b:79:1c:03:6d:71:6e:58:c8:ff:c3:96:81:b8:
                    e3:38:1e:ce:8d:5e:f1:04:77:72:15:fe:e1:fa:b5:
                    9f:23:ce:57:fa:d1:48:cf:2f:1b:f7:06:20:58:6e:
                    6b:43:51:8c:2a:e0:66:a4:bd:a0:0f:e7:10:ee:3b:
                    a9:c0:b4:fb:51:38:8a:90:8d:cb:9d:1b:bf:72:5a:
                    a6:f7:0c:ca:23:8b:96:dd:fd:5f:82:85:0a:1d:19:
                    dc:17:4e:7f:57:43:7b:c8:79:d8:7f:97:b3:a4:dd:
                    a3:85:e7:b2:04:19:52:49:75:ea:5a:f0:9a:72:e7:
                    96:30:eb:03:29:59:35:73:42:c7:91:ce:79:2d:be:
                    63:aa:0b:9c:20:61:a9:fa:81:af:d3:f5:c7:85:a8:
                    20:cf:9c:ba:3c:f2:67:12:7f:f7:55:d0:8a:c6:ef:
                    58:38:c3:a6:66:b6:5b:69:71:dd:ae:9a:8e:fa:06:
                    65:e3:f8:68:ce:12:98:8a:e6:07:9a:e4:41:7c:b7:
                    92:5e:14:3a:53:51:58:27:9b:3a:7e:42:ab:4d:92:
                    31:92:ed:25:c9:94:a2:5c:3d:bb:71:5b:60:de:53:
                    15:a4:ef:ca:c8:a9:8d:a1:f9:88:b4:16:f3:fc:82:
                    5a:6b
                Exponent: 65537 (0x10001)
        X509v3 extensions:
            X509v3 Basic Constraints: critical
                CA:FALSE
            Netscape Cert Type: 
                SSL Server
            X509v3 Key Usage: critical
                Digital Signature, Key Encipherment
            X509v3 Extended Key Usage: 
                TLS Web Server Authentication
            X509v3 Subject Key Identifier: 
                25:8F:D6:6B:77:DB:AE:FF:FF:60:AC:64:F5:AC:3D:69:47:6A:88:82
            X509v3 Authority Key Identifier: 
                9A:D9:6A:36:30:D9:BE:C7:76:B4:E1:F9:AC:76:18:BA:89:69:85:1C
            X509v3 Subject Alternative Name: 
                DNS:www.simple.org
    Signature Algorithm: sha256WithRSAEncryption
    Signature Value:
        39:fe:1a:e7:86:28:c0:87:2a:f2:68:35:9d:b8:5e:08:4f:24:
        10:ce:f4:74:4c:9e:84:2e:12:45:b8:74:e6:a2:78:32:df:41:
        7e:a8:a6:a8:99:20:fc:f6:71:dd:f9:84:b6:a9:1a:2b:f2:f2:
        4a:99:4b:e7:19:d9:7e:d7:1f:76:f5:db:fd:3c:98:50:d6:a1:
        9c:69:8e:88:ed:64:35:9a:9a:5b:78:e9:cc:ba:ff:0f:d7:e3:
        09:01:d8:a4:ef:88:1a:2c:8a:c5:8a:b3:50:f1:78:80:3c:3e:
        35:e9:a3:73:b4:53:83:11:60:03:d1:54:9a:39:9a:e9:22:a3:
        51:fc:b7:96:37:ff:ba:2c:70:90:3c:65:bc:86:57:cf:44:cf:
        30:7b:78:df:a4:e7:b2:2c:20:f1:5d:5d:0e:ba:9d:eb:4c:f3:
        9e:a3:58:f6:c3:27:11:62:38:37:c0:40:64:ec:14:14:f8:f7:
        6b:41:3c:f9:8d:19:e6:3e:0f:6a:22:18:b7:cd:e6:ab:a1:d8:
        f5:8b:98:f9:cb:05:c7:30:50:73:11:fc:92:76:ef:80:43:b5:
        e1:e8:1b:5a:77:55:a0:f5:ac:d8:7b:fe:1a:cf:33:75:73:e8:
        89:f0:b1:f5:a5:13:4d:f0:e4:a5:bb:0c:ea:85:b3:21:30:5d:
        29:a6:ae:76:55:f1:b3:2c:cc:b0:70:4f:5f:c3:4d:bc:f1:00:
        60:81:86:9b:30:ca:1a:c7:bc:c1:c6:bf:33:48:32:49:3d:87:
        0d:16:94:2e:6c:ed:44:70:3a:11:ed:5f:c3:84:25:f6:0b:72:
        9b:a2:cd:60:fa:17:9b:80:75:d3:d7:d8:f6:a5:fd:8f:7f:25:
        68:00:db:ec:96:60:9d:ec:3c:d7:6c:a8:8d:24:69:36:c6:fd:
        a8:2c:5f:c0:9b:a8:0f:99:56:e0:52:72:66:6b:5a:5f:15:bb:
        b6:72:28:f0:cc:9f:6e:26:19:28:f9:58:6b:b5:4b:47:2b:05:
        ed:93:ce:53:64:c7:8c:9a:a3:0a:35:eb:bc:fd:44:e8:a5:fc:
        e2:f9:a4:b1:7d:d7:08:e1:9b:54:62:48:76:ec:23:fe:d0:ea:
        0e:65:cb:76:91:1a:a1:60:ae:93:b5:c0:30:69:87:6c:e1:06:
        14:b6:51:2e:40:c4:22:62:86:af:40:fe:ba:ee:bd:00:e7:59:
        4c:b7:67:4a:30:30:f5:31:15:ac:91:15:f4:d8:bc:15:cc:56:
        4b:98:7e:77:93:e3:cc:55:e6:9c:c4:96:b7:97:ad:8d:6b:1d:
        93:2a:1a:57:b5:15:3f:be:3e:7c:38:42:b2:d0:83:73:71:41:
        53:ce:46:e1:9c:ad:3e:06
-----BEGIN CERTIFICATE-----
MIIFCjCCAvKgAwIBAgIBATANBgkqhkiG9w0BAQsFADCBizELMAkGA1UEBhMCVVMx
EzARBgNVBAgMCkNhbGlmb3JuaWExEzARBgNVBAoMClNpbXBsZSBJbmMxEzARBgNV
BAsMClNpZ25pbmcgQ0ExGjAYBgNVBAMMEVNpbXBsZSBTaWduaW5nIENBMSEwHwYJ
KoZIhvcNAQkBFhJzaWduaW5nQHNpbXBsZS5vcmcwHhcNMjUwNTE5MDIzNDQ4WhcN
MzAwNTE4MDIzNDQ4WjBeMQswCQYDVQQGEwJVUzETMBEGA1UECAwKQ2FsaWZvcm5p
YTETMBEGA1UECgwKU2ltcGxlIEluYzEMMAoGA1UECwwDV2ViMRcwFQYDVQQDDA53
d3cuc2ltcGxlLm9yZzCCASIwDQYJKoZIhvcNAQEBBQADggEPADCCAQoCggEBAMJZ
GBel3Xebnx/PN2oWM4t5HANtcW5YyP/DloG44zgezo1e8QR3chX+4fq1nyPOV/rR
SM8vG/cGIFhua0NRjCrgZqS9oA/nEO47qcC0+1E4ipCNy50bv3JapvcMyiOLlt39
X4KFCh0Z3BdOf1dDe8h52H+Xs6Tdo4XnsgQZUkl16lrwmnLnljDrAylZNXNCx5HO
eS2+Y6oLnCBhqfqBr9P1x4WoIM+cujzyZxJ/91XQisbvWDjDpma2W2lx3a6ajvoG
ZeP4aM4SmIrmB5rkQXy3kl4UOlNRWCebOn5Cq02SMZLtJcmUolw9u3FbYN5TFaTv
ysipjaH5iLQW8/yCWmsCAwEAAaOBpDCBoTAMBgNVHRMBAf8EAjAAMBEGCWCGSAGG
+EIBAQQEAwIGQDAOBgNVHQ8BAf8EBAMCBaAwEwYDVR0lBAwwCgYIKwYBBQUHAwEw
HQYDVR0OBBYEFCWP1mt3267//2CsZPWsPWlHaoiCMB8GA1UdIwQYMBaAFJrZajYw
2b7HdrTh+ax2GLqJaYUcMBkGA1UdEQQSMBCCDnd3dy5zaW1wbGUub3JnMA0GCSqG
SIb3DQEBCwUAA4ICAQA5/hrnhijAhyryaDWduF4ITyQQzvR0TJ6ELhJFuHTmongy
30F+qKaomSD89nHd+YS2qRor8vJKmUvnGdl+1x929dv9PJhQ1qGcaY6I7WQ1mppb
eOnMuv8P1+MJAdik74gaLIrFirNQ8XiAPD416aNztFODEWAD0VSaOZrpIqNR/LeW
N/+6LHCQPGW8hlfPRM8we3jfpOeyLCDxXV0Oup3rTPOeo1j2wycRYjg3wEBk7BQU
+PdrQTz5jRnmPg9qIhi3zearodj1i5j5ywXHMFBzEfySdu+AQ7Xh6Btad1Wg9azY
e/4azzN1c+iJ8LH1pRNN8OSluwzqhbMhMF0ppq52VfGzLMywcE9fw0288QBggYab
MMoax7zBxr8zSDJJPYcNFpQubO1EcDoR7V/DhCX2C3Kbos1g+hebgHXT19j2pf2P
fyVoANvslmCd7DzXbKiNJGk2xv2oLF/Am6gPmVbgUnJma1pfFbu2cijwzJ9uJhko
+VhrtUtHKwXtk85TZMeMmqMKNeu8/UTopfzi+aSxfdcI4ZtUYkh27CP+0OoOZct2
kRqhYK6TtcAwaYds4QYUtlEuQMQiYoavQP667r0A51lMt2dKMDD1MRWskRX02LwV
zFZLmH53k+PMVeacxJa3l62Nax2TKhpXtRU/vj58OEKy0INzcUFTzkbhnK0+Bg==
-----END CERTIFICATE-----
